target datalayout = "e-m:e-p270:32:32-p271:32:32-p272:64:64-i64:64-i128:128-f80:128-n8:16:32:64-S128"
target triple = "x86_64-pc-linux-gnu"

%struct.AVRational = type { i32, i32 }
%struct.AVPacket = type { ptr, i64, i64, ptr, i32, i32, i32, ptr, i32, i64, i64, ptr, ptr, %struct.AVRational }

; Function Attrs: nounwind uwtable
define void @av_shrink_packet(ptr noundef %0, i32 noundef %1) #0 {
  %3 = alloca ptr, align 8
  %4 = alloca i32, align 4
  store ptr %0, ptr %3, align 8, !tbaa !4
  store i32 %1, ptr %4, align 4, !tbaa !28
  %5 = load ptr, ptr %3, align 8, !tbaa !4
  %6 = getelementptr inbounds nuw %struct.AVPacket, ptr %5, i32 0, i32 4
  %7 = load i32, ptr %6, align 8, !tbaa !39
  %8 = load i32, ptr %4, align 4, !tbaa !28
  %9 = icmp sle i32 %7, %8
  br i1 %9, label %10, label %11

10:                                               ; preds = %2
  br label %21

11:                                               ; preds = %2
  %12 = load i32, ptr %4, align 4, !tbaa !28
  %13 = load ptr, ptr %3, align 8, !tbaa !4
  %14 = getelementptr inbounds nuw %struct.AVPacket, ptr %13, i32 0, i32 4
  store i32 %12, ptr %14, align 8, !tbaa !39
  %15 = load ptr, ptr %3, align 8, !tbaa !4
  %16 = getelementptr inbounds nuw %struct.AVPacket, ptr %15, i32 0, i32 3
  %17 = load ptr, ptr %16, align 8, !tbaa !38
  %18 = load i32, ptr %4, align 4, !tbaa !28
  %19 = sext i32 %18 to i64
  %20 = getelementptr inbounds i8, ptr %17, i64 %19
  call void @llvm.memset.p0.i64(ptr align 1 %20, i8 0, i64 64, i1 false)
  br label %21

21:                                               ; preds = %11, %10
  ret void
}