; Function Attrs: mustprogress nofree norecurse nosync nounwind willreturn memory(write, argmem: readwrite, inaccessiblemem: none) uwtable
define void @av_shrink_packet(ptr noundef captures(none) %0, i32 noundef %1) local_unnamed_addr #5 {
  %3 = getelementptr inbounds nuw i8, ptr %0, i64 32
  %4 = load i32, ptr %3, align 8, !tbaa !32
  %.not = icmp sgt i32 %4, %1
  br i1 %.not, label %5, label %10

5:                                                ; preds = %2
  store i32 %1, ptr %3, align 8, !tbaa !32
  %6 = getelementptr inbounds nuw i8, ptr %0, i64 24
  %7 = load ptr, ptr %6, align 8, !tbaa !31
  %8 = sext i32 %1 to i64
  %9 = getelementptr inbounds i8, ptr %7, i64 %8
  tail call void @llvm.memset.p0.i64(ptr noundef nonnull align 1 dereferenceable(64) %9, i8 0, i64 64, i1 false)
  br label %10

10:                                               ; preds = %2, %5
  ret void
}